target datalayout = "e-m:e-p270:32:32-p271:32:32-p272:64:64-i64:64-i128:128-f80:128-n8:16:32:64-S128"
target triple = "x86_64-pc-linux-gnu"

%struct.bio_st = type { ptr, ptr, ptr, ptr, ptr, i32, i32, i32, i32, i32, ptr, ptr, ptr, %struct.CRYPTO_REF_COUNT, i64, i64, %struct.crypto_ex_data_st }
%struct.CRYPTO_REF_COUNT = type { i32 }
%struct.crypto_ex_data_st = type { ptr, ptr }
%struct.bio_bio_st = type { ptr, i32, i64, i64, i64, ptr, i64 }

@.str = private unnamed_addr constant [32 x i8] c"../openssl/crypto/bio/bss_bio.c\00", align 1
@__func__.bio_nwrite0 = private unnamed_addr constant [12 x i8] c"bio_nwrite0\00", align 1

; Function Attrs: nounwind uwtable
define internal i64 @bio_nwrite0(ptr noundef %0, ptr noundef %1) #0 {
  %3 = alloca i64, align 8
  %4 = alloca ptr, align 8
  %5 = alloca ptr, align 8
  %6 = alloca ptr, align 8
  %7 = alloca i64, align 8
  %8 = alloca i64, align 8
  %9 = alloca i32, align 4
  store ptr %0, ptr %4, align 8, !tbaa !10
  store ptr %1, ptr %5, align 8, !tbaa !14
  call void @llvm.lifetime.start.p0(i64 8, ptr %6) #5
  call void @llvm.lifetime.start.p0(i64 8, ptr %7) #5
  call void @llvm.lifetime.start.p0(i64 8, ptr %8) #5
  %10 = load ptr, ptr %4, align 8, !tbaa !10
  call void @BIO_clear_flags(ptr noundef %10, i32 noundef 15)
  %11 = load ptr, ptr %4, align 8, !tbaa !10
  %12 = getelementptr inbounds nuw %struct.bio_st, ptr %11, i32 0, i32 5
  %13 = load i32, ptr %12, align 8, !tbaa !16
  %14 = icmp ne i32 %13, 0
  br i1 %14, label %16, label %15

15:                                               ; preds = %2
  store i64 0, ptr %3, align 8
  store i32 1, ptr %9, align 4
  br label %89

16:                                               ; preds = %2
  %17 = load ptr, ptr %4, align 8, !tbaa !10
  %18 = getelementptr inbounds nuw %struct.bio_st, ptr %17, i32 0, i32 10
  %19 = load ptr, ptr %18, align 8, !tbaa !27
  store ptr %19, ptr %6, align 8, !tbaa !28
  %20 = load ptr, ptr %6, align 8, !tbaa !28
  %21 = getelementptr inbounds nuw %struct.bio_bio_st, ptr %20, i32 0, i32 6
  store i64 0, ptr %21, align 8, !tbaa !30
  %22 = load ptr, ptr %6, align 8, !tbaa !28
  %23 = getelementptr inbounds nuw %struct.bio_bio_st, ptr %22, i32 0, i32 1
  %24 = load i32, ptr %23, align 8, !tbaa !32
  %25 = icmp ne i32 %24, 0
  br i1 %25, label %26, label %27

26:                                               ; preds = %16
  call void @ERR_new()
  call void @ERR_set_debug(ptr noundef @.str, i32 noundef 363, ptr noundef @__func__.bio_nwrite0)
  call void (i32, i32, ptr, ...) @ERR_set_error(i32 noundef 32, i32 noundef 124, ptr noundef null)
  store i64 -1, ptr %3, align 8
  store i32 1, ptr %9, align 4
  br label %89

27:                                               ; preds = %16
  %28 = load ptr, ptr %6, align 8, !tbaa !28
  %29 = getelementptr inbounds nuw %struct.bio_bio_st, ptr %28, i32 0, i32 2
  %30 = load i64, ptr %29, align 8, !tbaa !33
  %31 = load ptr, ptr %6, align 8, !tbaa !28
  %32 = getelementptr inbounds nuw %struct.bio_bio_st, ptr %31, i32 0, i32 4
  %33 = load i64, ptr %32, align 8, !tbaa !34
  %34 = icmp eq i64 %30, %33
  br i1 %34, label %35, label %37

35:                                               ; preds = %27
  %36 = load ptr, ptr %4, align 8, !tbaa !10
  call void @BIO_set_flags(ptr noundef %36, i32 noundef 10)
  store i64 -1, ptr %3, align 8
  store i32 1, ptr %9, align 4
  br label %89

37:                                               ; preds = %27
  %38 = load ptr, ptr %6, align 8, !tbaa !28
  %39 = getelementptr inbounds nuw %struct.bio_bio_st, ptr %38, i32 0, i32 4
  %40 = load i64, ptr %39, align 8, !tbaa !34
  %41 = load ptr, ptr %6, align 8, !tbaa !28
  %42 = getelementptr inbounds nuw %struct.bio_bio_st, ptr %41, i32 0, i32 2
  %43 = load i64, ptr %42, align 8, !tbaa !33
  %44 = sub i64 %40, %43
  store i64 %44, ptr %7, align 8, !tbaa !8
  %45 = load ptr, ptr %6, align 8, !tbaa !28
  %46 = getelementptr inbounds nuw %struct.bio_bio_st, ptr %45, i32 0, i32 3
  %47 = load i64, ptr %46, align 8, !tbaa !35
  %48 = load ptr, ptr %6, align 8, !tbaa !28
  %49 = getelementptr inbounds nuw %struct.bio_bio_st, ptr %48, i32 0, i32 2
  %50 = load i64, ptr %49, align 8, !tbaa !33
  %51 = add i64 %47, %50
  store i64 %51, ptr %8, align 8, !tbaa !8
  %52 = load i64, ptr %8, align 8, !tbaa !8
  %53 = load ptr, ptr %6, align 8, !tbaa !28
  %54 = getelementptr inbounds nuw %struct.bio_bio_st, ptr %53, i32 0, i32 4
  %55 = load i64, ptr %54, align 8, !tbaa !34
  %56 = icmp uge i64 %52, %55
  br i1 %56, label %57, label %63

57:                                               ; preds = %37
  %58 = load ptr, ptr %6, align 8, !tbaa !28
  %59 = getelementptr inbounds nuw %struct.bio_bio_st, ptr %58, i32 0, i32 4
  %60 = load i64, ptr %59, align 8, !tbaa !34
  %61 = load i64, ptr %8, align 8, !tbaa !8
  %62 = sub i64 %61, %60
  store i64 %62, ptr %8, align 8, !tbaa !8
  br label %63

63:                                               ; preds = %57, %37
  %64 = load i64, ptr %8, align 8, !tbaa !8
  %65 = load i64, ptr %7, align 8, !tbaa !8
  %66 = add i64 %64, %65
  %67 = load ptr, ptr %6, align 8, !tbaa !28
  %68 = getelementptr inbounds nuw %struct.bio_bio_st, ptr %67, i32 0, i32 4
  %69 = load i64, ptr %68, align 8, !tbaa !34
  %70 = icmp ugt i64 %66, %69
  br i1 %70, label %71, label %77

71:                                               ; preds = %63
  %72 = load ptr, ptr %6, align 8, !tbaa !28
  %73 = getelementptr inbounds nuw %struct.bio_bio_st, ptr %72, i32 0, i32 4
  %74 = load i64, ptr %73, align 8, !tbaa !34
  %75 = load i64, ptr %8, align 8, !tbaa !8
  %76 = sub i64 %74, %75
  store i64 %76, ptr %7, align 8, !tbaa !8
  br label %77

77:                                               ; preds = %71, %63
  %78 = load ptr, ptr %5, align 8, !tbaa !14
  %79 = icmp ne ptr %78, null
  br i1 %79, label %80, label %87

80:                                               ; preds = %77
  %81 = load ptr, ptr %6, align 8, !tbaa !28
  %82 = getelementptr inbounds nuw %struct.bio_bio_st, ptr %81, i32 0, i32 5
  %83 = load ptr, ptr %82, align 8, !tbaa !36
  %84 = load i64, ptr %8, align 8, !tbaa !8
  %85 = getelementptr inbounds nuw i8, ptr %83, i64 %84
  %86 = load ptr, ptr %5, align 8, !tbaa !14
  store ptr %85, ptr %86, align 8, !tbaa !26
  br label %87

87:                                               ; preds = %80, %77
  %88 = load i64, ptr %7, align 8, !tbaa !8
  store i64 %88, ptr %3, align 8
  store i32 1, ptr %9, align 4
  br label %89

89:                                               ; preds = %87, %35, %26, %15
  call void @llvm.lifetime.end.p0(i64 8, ptr %8) #5
  call void @llvm.lifetime.end.p0(i64 8, ptr %7) #5
  call void @llvm.lifetime.end.p0(i64 8, ptr %6) #5
  %90 = load i64, ptr %3, align 8
  ret i64 %90
}