; Function Attrs: nounwind uwtable
define internal fastcc i64 @bio_nwrite0(ptr noundef %0, ptr noundef writeonly captures(address_is_null) %1) unnamed_addr #1 {
  tail call void @BIO_clear_flags(ptr noundef %0, i32 noundef 15) #8
  %3 = getelementptr inbounds nuw i8, ptr %0, i64 40
  %4 = load i32, ptr %3, align 8, !tbaa !8
  %.not = icmp eq i32 %4, 0
  br i1 %.not, label %32, label %5

5:                                                ; preds = %2
  %6 = getelementptr inbounds nuw i8, ptr %0, i64 64
  %7 = load ptr, ptr %6, align 8, !tbaa !20
  %8 = getelementptr inbounds nuw i8, ptr %7, i64 48
  store i64 0, ptr %8, align 8, !tbaa !21
  %9 = getelementptr inbounds nuw i8, ptr %7, i64 8
  %10 = load i32, ptr %9, align 8, !tbaa !23
  %.not33 = icmp eq i32 %10, 0
  br i1 %.not33, label %12, label %11

11:                                               ; preds = %5
  tail call void @ERR_new() #8
  tail call void @ERR_set_debug(ptr noundef nonnull @.str, i32 noundef 363, ptr noundef nonnull @__func__.bio_nwrite0) #8
  tail call void (i32, i32, ptr, ...) @ERR_set_error(i32 noundef 32, i32 noundef 124, ptr noundef null) #8
  br label %32

12:                                               ; preds = %5
  %13 = getelementptr inbounds nuw i8, ptr %7, i64 16
  %14 = load i64, ptr %13, align 8, !tbaa !24
  %15 = getelementptr inbounds nuw i8, ptr %7, i64 32
  %16 = load i64, ptr %15, align 8, !tbaa !25
  %17 = icmp eq i64 %14, %16
  br i1 %17, label %18, label %19

18:                                               ; preds = %12
  tail call void @BIO_set_flags(ptr noundef nonnull %0, i32 noundef 10) #8
  br label %32

19:                                               ; preds = %12
  %20 = sub i64 %16, %14
  %21 = getelementptr inbounds nuw i8, ptr %7, i64 24
  %22 = load i64, ptr %21, align 8, !tbaa !26
  %23 = add i64 %22, %14
  %.not34 = icmp ult i64 %23, %16
  %24 = select i1 %.not34, i64 0, i64 %16
  %spec.select = sub nuw i64 %23, %24
  %25 = add i64 %spec.select, %20
  %26 = icmp ugt i64 %25, %16
  %27 = sub i64 %16, %spec.select
  %.026 = select i1 %26, i64 %27, i64 %20
  %.not35 = icmp eq ptr %1, null
  br i1 %.not35, label %32, label %28

28:                                               ; preds = %19
  %29 = getelementptr inbounds nuw i8, ptr %7, i64 40
  %30 = load ptr, ptr %29, align 8, !tbaa !27
  %31 = getelementptr inbounds nuw i8, ptr %30, i64 %spec.select
  store ptr %31, ptr %1, align 8, !tbaa !33
  br label %32

32:                                               ; preds = %19, %28, %2, %18, %11
  %.027 = phi i64 [ -1, %11 ], [ -1, %18 ], [ 0, %2 ], [ %.026, %28 ], [ %.026, %19 ]
  ret i64 %.027
}